target datalayout = "e-m:e-p270:32:32-p271:32:32-p272:64:64-i64:64-i128:128-f80:128-n8:16:32:64-S128"
target triple = "x86_64-pc-linux-gnu"

%struct.namelist_t = type { ptr, i32, i32 }
%struct.namelist_entry_t = type { ptr, ptr, i32 }

; Function Attrs: nounwind uwtable
define dso_local void @namelist_add(ptr noundef %0, ptr noundef %1, ptr noundef %2, i32 noundef %3) #0 {
  %5 = alloca ptr, align 8
  %6 = alloca ptr, align 8
  %7 = alloca ptr, align 8
  %8 = alloca i32, align 4
  %9 = alloca ptr, align 8
  %10 = alloca i64, align 8
  %11 = alloca ptr, align 8
  store ptr %0, ptr %5, align 8
  store ptr %1, ptr %6, align 8
  store ptr %2, ptr %7, align 8
  store i32 %3, ptr %8, align 4
  %12 = load ptr, ptr %5, align 8
  %13 = getelementptr inbounds %struct.namelist_t, ptr %12, i32 0, i32 1
  %14 = load i32, ptr %13, align 8
  %15 = load ptr, ptr %5, align 8
  %16 = getelementptr inbounds %struct.namelist_t, ptr %15, i32 0, i32 2
  %17 = load i32, ptr %16, align 4
  %18 = icmp eq i32 %14, %17
  br i1 %18, label %19, label %43

19:                                               ; preds = %4
  %20 = load ptr, ptr %5, align 8
  %21 = getelementptr inbounds %struct.namelist_t, ptr %20, i32 0, i32 2
  %22 = load i32, ptr %21, align 4
  %23 = load ptr, ptr %5, align 8
  %24 = getelementptr inbounds %struct.namelist_t, ptr %23, i32 0, i32 2
  %25 = load i32, ptr %24, align 4
  %26 = ashr i32 %25, 1
  %27 = add i32 %22, %26
  %28 = add i32 %27, 4
  %29 = sext i32 %28 to i64
  store i64 %29, ptr %10, align 8
  %30 = load ptr, ptr %5, align 8
  %31 = getelementptr inbounds %struct.namelist_t, ptr %30, i32 0, i32 0
  %32 = load ptr, ptr %31, align 8
  %33 = load i64, ptr %10, align 8
  %34 = mul i64 24, %33
  %35 = call ptr @realloc(ptr noundef %32, i64 noundef %34) #8
  store ptr %35, ptr %11, align 8
  %36 = load ptr, ptr %11, align 8
  %37 = load ptr, ptr %5, align 8
  %38 = getelementptr inbounds %struct.namelist_t, ptr %37, i32 0, i32 0
  store ptr %36, ptr %38, align 8
  %39 = load i64, ptr %10, align 8
  %40 = trunc i64 %39 to i32
  %41 = load ptr, ptr %5, align 8
  %42 = getelementptr inbounds %struct.namelist_t, ptr %41, i32 0, i32 2
  store i32 %40, ptr %42, align 4
  br label %43

43:                                               ; preds = %19, %4
  %44 = load ptr, ptr %5, align 8
  %45 = getelementptr inbounds %struct.namelist_t, ptr %44, i32 0, i32 0
  %46 = load ptr, ptr %45, align 8
  %47 = load ptr, ptr %5, align 8
  %48 = getelementptr inbounds %struct.namelist_t, ptr %47, i32 0, i32 1
  %49 = load i32, ptr %48, align 8
  %50 = add i32 %49, 1
  store i32 %50, ptr %48, align 8
  %51 = sext i32 %49 to i64
  %52 = getelementptr %struct.namelist_entry_t, ptr %46, i64 %51
  store ptr %52, ptr %9, align 8
  %53 = load ptr, ptr %6, align 8
  %54 = call noalias ptr @strdup(ptr noundef %53) #9
  %55 = load ptr, ptr %9, align 8
  %56 = getelementptr inbounds %struct.namelist_entry_t, ptr %55, i32 0, i32 0
  store ptr %54, ptr %56, align 8
  %57 = load ptr, ptr %7, align 8
  %58 = icmp ne ptr %57, null
  br i1 %58, label %59, label %64

59:                                               ; preds = %43
  %60 = load ptr, ptr %7, align 8
  %61 = call noalias ptr @strdup(ptr noundef %60) #9
  %62 = load ptr, ptr %9, align 8
  %63 = getelementptr inbounds %struct.namelist_entry_t, ptr %62, i32 0, i32 1
  store ptr %61, ptr %63, align 8
  br label %67

64:                                               ; preds = %43
  %65 = load ptr, ptr %9, align 8
  %66 = getelementptr inbounds %struct.namelist_entry_t, ptr %65, i32 0, i32 1
  store ptr null, ptr %66, align 8
  br label %67

67:                                               ; preds = %64, %59
  %68 = load i32, ptr %8, align 4
  %69 = load ptr, ptr %9, align 8
  %70 = getelementptr inbounds %struct.namelist_entry_t, ptr %69, i32 0, i32 2
  store i32 %68, ptr %70, align 8
  ret void
}