; Function Attrs: mustprogress nounwind willreturn uwtable
define dso_local void @namelist_add(ptr nocapture noundef %0, ptr nocapture noundef readonly %1, ptr noundef readonly %2, i32 noundef %3) local_unnamed_addr #0 {
  %5 = getelementptr inbounds i8, ptr %0, i64 8
  %6 = load i32, ptr %5, align 8
  %7 = getelementptr inbounds i8, ptr %0, i64 12
  %8 = load i32, ptr %7, align 4
  %9 = icmp eq i32 %6, %8
  %.pre = load ptr, ptr %0, align 8
  br i1 %9, label %10, label %17

10:                                               ; preds = %4
  %11 = ashr i32 %6, 1
  %12 = add i32 %6, 4
  %13 = add i32 %12, %11
  %14 = sext i32 %13 to i64
  %15 = mul nsw i64 %14, 24
  %16 = tail call ptr @realloc(ptr noundef %.pre, i64 noundef %15) #15
  store ptr %16, ptr %0, align 8
  store i32 %13, ptr %7, align 4
  %.pre20 = load i32, ptr %5, align 8
  br label %17

17:                                               ; preds = %10, %4
  %18 = phi i32 [ %.pre20, %10 ], [ %6, %4 ]
  %19 = phi ptr [ %16, %10 ], [ %.pre, %4 ]
  %20 = add i32 %18, 1
  store i32 %20, ptr %5, align 8
  %21 = sext i32 %18 to i64
  %22 = getelementptr %struct.namelist_entry_t, ptr %19, i64 %21
  %23 = tail call noalias ptr @strdup(ptr noundef %1) #16
  store ptr %23, ptr %22, align 8
  %.not = icmp eq ptr %2, null
  br i1 %.not, label %26, label %24

24:                                               ; preds = %17
  %25 = tail call noalias ptr @strdup(ptr noundef nonnull %2) #16
  br label %26

26:                                               ; preds = %17, %24
  %.sink = phi ptr [ %25, %24 ], [ null, %17 ]
  %27 = getelementptr inbounds i8, ptr %22, i64 8
  store ptr %.sink, ptr %27, align 8
  %28 = getelementptr inbounds i8, ptr %22, i64 16
  store i32 %3, ptr %28, align 8
  ret void
}